target datalayout = "e-m:e-p270:32:32-p271:32:32-p272:64:64-i64:64-i128:128-f80:128-n8:16:32:64-S128"
target triple = "x86_64-pc-linux-gnu"

@.str = private unnamed_addr constant [35 x i8] c"../openssl/test/ec_internal_test.c\00", align 1
@.str.13 = private unnamed_addr constant [19 x i8] c"ctx = BN_CTX_new()\00", align 1
@.str.14 = private unnamed_addr constant [20 x i8] c"b = BN_CTX_get(ctx)\00", align 1
@.str.15 = private unnamed_addr constant [27 x i8] c"group = EC_GROUP_new(meth)\00", align 1
@.str.16 = private unnamed_addr constant [26 x i8] c"BN_bin2bn(params, len, p)\00", align 1
@.str.17 = private unnamed_addr constant [32 x i8] c"BN_bin2bn(params + len, len, a)\00", align 1
@.str.18 = private unnamed_addr constant [36 x i8] c"BN_bin2bn(params + 2 * len, len, b)\00", align 1
@.str.19 = private unnamed_addr constant [40 x i8] c"EC_GROUP_set_curve(group, p, a, b, ctx)\00", align 1

; Function Attrs: nounwind uwtable
define internal i32 @field_tests(ptr noundef %0, ptr noundef %1, i32 noundef %2) #0 {
  %4 = alloca i32, align 4
  %5 = alloca ptr, align 8
  %6 = alloca ptr, align 8
  %7 = alloca i32, align 4
  %8 = alloca ptr, align 8
  %9 = alloca ptr, align 8
  %10 = alloca ptr, align 8
  %11 = alloca ptr, align 8
  %12 = alloca ptr, align 8
  %13 = alloca i32, align 4
  %14 = alloca i32, align 4
  store ptr %0, ptr %5, align 8, !tbaa !43
  store ptr %1, ptr %6, align 8, !tbaa !36
  store i32 %2, ptr %7, align 4, !tbaa !10
  call void @llvm.lifetime.start.p0(i64 8, ptr %8) #4
  store ptr null, ptr %8, align 8, !tbaa !12
  call void @llvm.lifetime.start.p0(i64 8, ptr %9) #4
  store ptr null, ptr %9, align 8, !tbaa !16
  call void @llvm.lifetime.start.p0(i64 8, ptr %10) #4
  store ptr null, ptr %10, align 8, !tbaa !16
  call void @llvm.lifetime.start.p0(i64 8, ptr %11) #4
  store ptr null, ptr %11, align 8, !tbaa !16
  call void @llvm.lifetime.start.p0(i64 8, ptr %12) #4
  store ptr null, ptr %12, align 8, !tbaa !14
  call void @llvm.lifetime.start.p0(i64 4, ptr %13) #4
  store i32 0, ptr %13, align 4, !tbaa !10
  %15 = call ptr @BN_CTX_new()
  store ptr %15, ptr %8, align 8, !tbaa !12
  %16 = call i32 @test_ptr(ptr noundef @.str, i32 noundef 84, ptr noundef @.str.13, ptr noundef %15)
  %17 = icmp ne i32 %16, 0
  br i1 %17, label %19, label %18

18:                                               ; preds = %3
  store i32 0, ptr %4, align 4
  store i32 1, ptr %14, align 4
  br label %95

19:                                               ; preds = %3
  %20 = load ptr, ptr %8, align 8, !tbaa !12
  call void @BN_CTX_start(ptr noundef %20)
  %21 = load ptr, ptr %8, align 8, !tbaa !12
  %22 = call ptr @BN_CTX_get(ptr noundef %21)
  store ptr %22, ptr %9, align 8, !tbaa !16
  %23 = load ptr, ptr %8, align 8, !tbaa !12
  %24 = call ptr @BN_CTX_get(ptr noundef %23)
  store ptr %24, ptr %10, align 8, !tbaa !16
  %25 = load ptr, ptr %8, align 8, !tbaa !12
  %26 = call ptr @BN_CTX_get(ptr noundef %25)
  store ptr %26, ptr %11, align 8, !tbaa !16
  %27 = call i32 @test_ptr(ptr noundef @.str, i32 noundef 90, ptr noundef @.str.14, ptr noundef %26)
  %28 = icmp ne i32 %27, 0
  br i1 %28, label %29, label %84

29:                                               ; preds = %19
  %30 = load ptr, ptr %5, align 8, !tbaa !43
  %31 = call ptr @EC_GROUP_new(ptr noundef %30)
  store ptr %31, ptr %12, align 8, !tbaa !14
  %32 = call i32 @test_ptr(ptr noundef @.str, i32 noundef 91, ptr noundef @.str.15, ptr noundef %31)
  %33 = icmp ne i32 %32, 0
  br i1 %33, label %34, label %84

34:                                               ; preds = %29
  %35 = load ptr, ptr %6, align 8, !tbaa !36
  %36 = load i32, ptr %7, align 4, !tbaa !10
  %37 = load ptr, ptr %9, align 8, !tbaa !16
  %38 = call ptr @BN_bin2bn(ptr noundef %35, i32 noundef %36, ptr noundef %37)
  %39 = icmp ne ptr %38, null
  %40 = zext i1 %39 to i32
  %41 = call i32 @test_true(ptr noundef @.str, i32 noundef 92, ptr noundef @.str.16, i32 noundef %40)
  %42 = icmp ne i32 %41, 0
  br i1 %42, label %43, label %84

43:                                               ; preds = %34
  %44 = load ptr, ptr %6, align 8, !tbaa !36
  %45 = load i32, ptr %7, align 4, !tbaa !10
  %46 = sext i32 %45 to i64
  %47 = getelementptr inbounds i8, ptr %44, i64 %46
  %48 = load i32, ptr %7, align 4, !tbaa !10
  %49 = load ptr, ptr %10, align 8, !tbaa !16
  %50 = call ptr @BN_bin2bn(ptr noundef %47, i32 noundef %48, ptr noundef %49)
  %51 = icmp ne ptr %50, null
  %52 = zext i1 %51 to i32
  %53 = call i32 @test_true(ptr noundef @.str, i32 noundef 93, ptr noundef @.str.17, i32 noundef %52)
  %54 = icmp ne i32 %53, 0
  br i1 %54, label %55, label %84

55:                                               ; preds = %43
  %56 = load ptr, ptr %6, align 8, !tbaa !36
  %57 = load i32, ptr %7, align 4, !tbaa !10
  %58 = mul nsw i32 2, %57
  %59 = sext i32 %58 to i64
  %60 = getelementptr inbounds i8, ptr %56, i64 %59
  %61 = load i32, ptr %7, align 4, !tbaa !10
  %62 = load ptr, ptr %11, align 8, !tbaa !16
  %63 = call ptr @BN_bin2bn(ptr noundef %60, i32 noundef %61, ptr noundef %62)
  %64 = icmp ne ptr %63, null
  %65 = zext i1 %64 to i32
  %66 = call i32 @test_true(ptr noundef @.str, i32 noundef 94, ptr noundef @.str.18, i32 noundef %65)
  %67 = icmp ne i32 %66, 0
  br i1 %67, label %68, label %84

68:                                               ; preds = %55
  %69 = load ptr, ptr %12, align 8, !tbaa !14
  %70 = load ptr, ptr %9, align 8, !tbaa !16
  %71 = load ptr, ptr %10, align 8, !tbaa !16
  %72 = load ptr, ptr %11, align 8, !tbaa !16
  %73 = load ptr, ptr %8, align 8, !tbaa !12
  %74 = call i32 @EC_GROUP_set_curve(ptr noundef %69, ptr noundef %70, ptr noundef %71, ptr noundef %72, ptr noundef %73)
  %75 = icmp ne i32 %74, 0
  %76 = zext i1 %75 to i32
  %77 = call i32 @test_true(ptr noundef @.str, i32 noundef 95, ptr noundef @.str.19, i32 noundef %76)
  %78 = icmp ne i32 %77, 0
  br i1 %78, label %79, label %84

79:                                               ; preds = %68
  %80 = load ptr, ptr %12, align 8, !tbaa !14
  %81 = load ptr, ptr %8, align 8, !tbaa !12
  %82 = call i32 @group_field_tests(ptr noundef %80, ptr noundef %81)
  %83 = icmp ne i32 %82, 0
  br i1 %83, label %85, label %84

84:                                               ; preds = %79, %68, %55, %43, %34, %29, %19
  br label %86

85:                                               ; preds = %79
  store i32 1, ptr %13, align 4, !tbaa !10
  br label %86

86:                                               ; preds = %85, %84
  %87 = load ptr, ptr %8, align 8, !tbaa !12
  call void @BN_CTX_end(ptr noundef %87)
  %88 = load ptr, ptr %8, align 8, !tbaa !12
  call void @BN_CTX_free(ptr noundef %88)
  %89 = load ptr, ptr %12, align 8, !tbaa !14
  %90 = icmp ne ptr %89, null
  br i1 %90, label %91, label %93

91:                                               ; preds = %86
  %92 = load ptr, ptr %12, align 8, !tbaa !14
  call void @EC_GROUP_free(ptr noundef %92)
  br label %93

93:                                               ; preds = %91, %86
  %94 = load i32, ptr %13, align 4, !tbaa !10
  store i32 %94, ptr %4, align 4
  store i32 1, ptr %14, align 4
  br label %95

95:                                               ; preds = %93, %18
  call void @llvm.lifetime.end.p0(i64 4, ptr %13) #4
  call void @llvm.lifetime.end.p0(i64 8, ptr %12) #4
  call void @llvm.lifetime.end.p0(i64 8, ptr %11) #4
  call void @llvm.lifetime.end.p0(i64 8, ptr %10) #4
  call void @llvm.lifetime.end.p0(i64 8, ptr %9) #4
  call void @llvm.lifetime.end.p0(i64 8, ptr %8) #4
  %96 = load i32, ptr %4, align 4
  ret i32 %96
}