; Function Attrs: nounwind uwtable
define internal fastcc range(i32 0, 2) i32 @field_tests(ptr noundef %0, ptr noundef %1, i32 noundef range(i32 32, 37) %2) unnamed_addr #0 {
  %4 = tail call ptr @BN_CTX_new() #4
  %5 = tail call i32 @test_ptr(ptr noundef nonnull @.str, i32 noundef 84, ptr noundef nonnull @.str.13, ptr noundef %4) #4
  %.not = icmp eq i32 %5, 0
  br i1 %.not, label %43, label %6

6:                                                ; preds = %3
  tail call void @BN_CTX_start(ptr noundef %4) #4
  %7 = tail call ptr @BN_CTX_get(ptr noundef %4) #4
  %8 = tail call ptr @BN_CTX_get(ptr noundef %4) #4
  %9 = tail call ptr @BN_CTX_get(ptr noundef %4) #4
  %10 = tail call i32 @test_ptr(ptr noundef nonnull @.str, i32 noundef 90, ptr noundef nonnull @.str.14, ptr noundef %9) #4
  %.not30 = icmp eq i32 %10, 0
  br i1 %.not30, label %41, label %11

11:                                               ; preds = %6
  %12 = tail call ptr @EC_GROUP_new(ptr noundef %0) #4
  %13 = tail call i32 @test_ptr(ptr noundef nonnull @.str, i32 noundef 91, ptr noundef nonnull @.str.15, ptr noundef %12) #4
  %.not31 = icmp eq i32 %13, 0
  br i1 %.not31, label %41, label %14

14:                                               ; preds = %11
  %15 = tail call ptr @BN_bin2bn(ptr noundef %1, i32 noundef %2, ptr noundef %7) #4
  %16 = icmp ne ptr %15, null
  %17 = zext i1 %16 to i32
  %18 = tail call i32 @test_true(ptr noundef nonnull @.str, i32 noundef 92, ptr noundef nonnull @.str.16, i32 noundef %17) #4
  %.not32 = icmp eq i32 %18, 0
  br i1 %.not32, label %41, label %19

19:                                               ; preds = %14
  %20 = zext nneg i32 %2 to i64
  %21 = getelementptr inbounds nuw i8, ptr %1, i64 %20
  %22 = tail call ptr @BN_bin2bn(ptr noundef nonnull %21, i32 noundef %2, ptr noundef %8) #4
  %23 = icmp ne ptr %22, null
  %24 = zext i1 %23 to i32
  %25 = tail call i32 @test_true(ptr noundef nonnull @.str, i32 noundef 93, ptr noundef nonnull @.str.17, i32 noundef %24) #4
  %.not33 = icmp eq i32 %25, 0
  br i1 %.not33, label %41, label %26

26:                                               ; preds = %19
  %27 = shl nuw nsw i32 %2, 1
  %28 = zext nneg i32 %27 to i64
  %29 = getelementptr inbounds nuw i8, ptr %1, i64 %28
  %30 = tail call ptr @BN_bin2bn(ptr noundef nonnull %29, i32 noundef %2, ptr noundef %9) #4
  %31 = icmp ne ptr %30, null
  %32 = zext i1 %31 to i32
  %33 = tail call i32 @test_true(ptr noundef nonnull @.str, i32 noundef 94, ptr noundef nonnull @.str.18, i32 noundef %32) #4
  %.not34 = icmp eq i32 %33, 0
  br i1 %.not34, label %41, label %34

34:                                               ; preds = %26
  %35 = tail call i32 @EC_GROUP_set_curve(ptr noundef %12, ptr noundef %7, ptr noundef %8, ptr noundef %9, ptr noundef %4) #4
  %36 = icmp ne i32 %35, 0
  %37 = zext i1 %36 to i32
  %38 = tail call i32 @test_true(ptr noundef nonnull @.str, i32 noundef 95, ptr noundef nonnull @.str.19, i32 noundef %37) #4
  %.not35 = icmp eq i32 %38, 0
  br i1 %.not35, label %41, label %39

39:                                               ; preds = %34
  %40 = tail call fastcc i32 @group_field_tests(ptr noundef %12, ptr noundef %4)
  br label %41

41:                                               ; preds = %39, %6, %11, %14, %19, %26, %34
  %.028 = phi ptr [ %12, %34 ], [ %12, %26 ], [ %12, %19 ], [ %12, %14 ], [ %12, %11 ], [ null, %6 ], [ %12, %39 ]
  %.0 = phi i32 [ 0, %34 ], [ 0, %26 ], [ 0, %19 ], [ 0, %14 ], [ 0, %11 ], [ 0, %6 ], [ %40, %39 ]
  tail call void @BN_CTX_end(ptr noundef %4) #4
  tail call void @BN_CTX_free(ptr noundef %4) #4
  %.not37 = icmp eq ptr %.028, null
  br i1 %.not37, label %43, label %42

42:                                               ; preds = %41
  tail call void @EC_GROUP_free(ptr noundef nonnull %.028) #4
  br label %43

43:                                               ; preds = %41, %42, %3
  %.029 = phi i32 [ 0, %3 ], [ %.0, %42 ], [ %.0, %41 ]
  ret i32 %.029
}